target datalayout = "e-m:e-p270:32:32-p271:32:32-p272:64:64-i64:64-i128:128-f80:128-n8:16:32:64-S128"
target triple = "x86_64-pc-linux-gnu"

%"struct.duckdb_yyjson::yyjson_alc" = type { ptr, ptr, ptr, ptr }
%"struct.duckdb_yyjson::yyjson_str_pool" = type { ptr, ptr, i64, i64, ptr }
%"struct.duckdb_yyjson::yyjson_str_chunk" = type { ptr, i64 }
%"struct.duckdb_yyjson::yyjson_val_pool" = type { ptr, ptr, i64, i64, ptr }
%"struct.duckdb_yyjson::yyjson_val_chunk" = type { ptr, i64 }
%"struct.duckdb_yyjson::yyjson_mut_doc" = type { ptr, %"struct.duckdb_yyjson::yyjson_alc", %"struct.duckdb_yyjson::yyjson_str_pool", %"struct.duckdb_yyjson::yyjson_val_pool" }

@_ZN13duckdb_yyjsonL18YYJSON_DEFAULT_ALCE = internal constant %"struct.duckdb_yyjson::yyjson_alc" { ptr @_ZN13duckdb_yyjsonL14default_mallocEPvm, ptr @_ZN13duckdb_yyjsonL15default_reallocEPvS0_mm, ptr @_ZN13duckdb_yyjsonL12default_freeEPvS0_, ptr null }, align 8

; Function Attrs: alwaysinline mustprogress uwtable
define internal void @_ZN13duckdb_yyjsonL30unsafe_yyjson_val_pool_releaseEPNS_15yyjson_val_poolEPNS_10yyjson_alcE(ptr noundef %0, ptr noundef %1) #5 {
  %3 = alloca ptr, align 8
  %4 = alloca ptr, align 8
  %5 = alloca ptr, align 8
  %6 = alloca ptr, align 8
  store ptr %0, ptr %3, align 8, !tbaa !57
  store ptr %1, ptr %4, align 8, !tbaa !3
  call void @llvm.lifetime.start.p0(i64 8, ptr %5) #15
  %7 = load ptr, ptr %3, align 8, !tbaa !57
  %8 = getelementptr inbounds nuw %"struct.duckdb_yyjson::yyjson_val_pool", ptr %7, i32 0, i32 4
  %9 = load ptr, ptr %8, align 8, !tbaa !64
  store ptr %9, ptr %5, align 8, !tbaa !63
  call void @llvm.lifetime.start.p0(i64 8, ptr %6) #15
  br label %10

10:                                               ; preds = %13, %2
  %11 = load ptr, ptr %5, align 8, !tbaa !63
  %12 = icmp ne ptr %11, null
  br i1 %12, label %13, label %25

13:                                               ; preds = %10
  %14 = load ptr, ptr %5, align 8, !tbaa !63
  %15 = getelementptr inbounds nuw %"struct.duckdb_yyjson::yyjson_val_chunk", ptr %14, i32 0, i32 0
  %16 = load ptr, ptr %15, align 8, !tbaa !65
  store ptr %16, ptr %6, align 8, !tbaa !63
  %17 = load ptr, ptr %4, align 8, !tbaa !3
  %18 = getelementptr inbounds nuw %"struct.duckdb_yyjson::yyjson_alc", ptr %17, i32 0, i32 2
  %19 = load ptr, ptr %18, align 8, !tbaa !25
  %20 = load ptr, ptr %4, align 8, !tbaa !3
  %21 = getelementptr inbounds nuw %"struct.duckdb_yyjson::yyjson_alc", ptr %20, i32 0, i32 3
  %22 = load ptr, ptr %21, align 8, !tbaa !26
  %23 = load ptr, ptr %5, align 8, !tbaa !63
  call void %19(ptr noundef %22, ptr noundef %23)
  %24 = load ptr, ptr %6, align 8, !tbaa !63
  store ptr %24, ptr %5, align 8, !tbaa !63
  br label %10, !llvm.loop !77

25:                                               ; preds = %10
  call void @llvm.lifetime.end.p0(i64 8, ptr %6) #15
  call void @llvm.lifetime.end.p0(i64 8, ptr %5) #15
  ret void
}

; Function Attrs: alwaysinline mustprogress uwtable
define internal void @_ZN13duckdb_yyjsonL30unsafe_yyjson_str_pool_releaseEPNS_15yyjson_str_poolEPNS_10yyjson_alcE(ptr noundef %0, ptr noundef %1) #5 {
  %3 = alloca ptr, align 8
  %4 = alloca ptr, align 8
  %5 = alloca ptr, align 8
  %6 = alloca ptr, align 8
  store ptr %0, ptr %3, align 8, !tbaa !43
  store ptr %1, ptr %4, align 8, !tbaa !3
  call void @llvm.lifetime.start.p0(i64 8, ptr %5) #15
  %7 = load ptr, ptr %3, align 8, !tbaa !43
  %8 = getelementptr inbounds nuw %"struct.duckdb_yyjson::yyjson_str_pool", ptr %7, i32 0, i32 4
  %9 = load ptr, ptr %8, align 8, !tbaa !50
  store ptr %9, ptr %5, align 8, !tbaa !49
  call void @llvm.lifetime.start.p0(i64 8, ptr %6) #15
  br label %10

10:                                               ; preds = %13, %2
  %11 = load ptr, ptr %5, align 8, !tbaa !49
  %12 = icmp ne ptr %11, null
  br i1 %12, label %13, label %25

13:                                               ; preds = %10
  %14 = load ptr, ptr %5, align 8, !tbaa !49
  %15 = getelementptr inbounds nuw %"struct.duckdb_yyjson::yyjson_str_chunk", ptr %14, i32 0, i32 0
  %16 = load ptr, ptr %15, align 8, !tbaa !51
  store ptr %16, ptr %6, align 8, !tbaa !49
  %17 = load ptr, ptr %4, align 8, !tbaa !3
  %18 = getelementptr inbounds nuw %"struct.duckdb_yyjson::yyjson_alc", ptr %17, i32 0, i32 2
  %19 = load ptr, ptr %18, align 8, !tbaa !25
  %20 = load ptr, ptr %4, align 8, !tbaa !3
  %21 = getelementptr inbounds nuw %"struct.duckdb_yyjson::yyjson_alc", ptr %20, i32 0, i32 3
  %22 = load ptr, ptr %21, align 8, !tbaa !26
  %23 = load ptr, ptr %5, align 8, !tbaa !49
  call void %19(ptr noundef %22, ptr noundef %23)
  %24 = load ptr, ptr %6, align 8, !tbaa !49
  store ptr %24, ptr %5, align 8, !tbaa !49
  br label %10, !llvm.loop !76

25:                                               ; preds = %10
  call void @llvm.lifetime.end.p0(i64 8, ptr %6) #15
  call void @llvm.lifetime.end.p0(i64 8, ptr %5) #15
  ret void
}

; Function Attrs: alwaysinline mustprogress nounwind uwtable
define internal void @_ZN13duckdb_yyjsonL23yyjson_mut_doc_set_rootEPNS_14yyjson_mut_docEPNS_14yyjson_mut_valE(ptr noundef %0, ptr noundef %1) #7 {
  %3 = alloca ptr, align 8
  %4 = alloca ptr, align 8
  store ptr %0, ptr %3, align 8, !tbaa !71
  store ptr %1, ptr %4, align 8, !tbaa !85
  %5 = load ptr, ptr %3, align 8, !tbaa !71
  %6 = icmp ne ptr %5, null
  br i1 %6, label %7, label %11

7:                                                ; preds = %2
  %8 = load ptr, ptr %4, align 8, !tbaa !85
  %9 = load ptr, ptr %3, align 8, !tbaa !71
  %10 = getelementptr inbounds nuw %"struct.duckdb_yyjson::yyjson_mut_doc", ptr %9, i32 0, i32 0
  store ptr %8, ptr %10, align 8, !tbaa !97
  br label %11

11:                                               ; preds = %7, %2
  ret void
}

; Function Attrs: mustprogress uwtable
define void @_ZN13duckdb_yyjson19yyjson_mut_doc_freeEPNS_14yyjson_mut_docE(ptr noundef %0) #1 {
  %2 = alloca ptr, align 8
  %3 = alloca %"struct.duckdb_yyjson::yyjson_alc", align 8
  store ptr %0, ptr %2, align 8, !tbaa !71
  %4 = load ptr, ptr %2, align 8, !tbaa !71
  %5 = icmp ne ptr %4, null
  br i1 %5, label %6, label %20

6:                                                ; preds = %1
  call void @llvm.lifetime.start.p0(i64 32, ptr %3) #15
  %7 = load ptr, ptr %2, align 8, !tbaa !71
  %8 = getelementptr inbounds nuw %"struct.duckdb_yyjson::yyjson_mut_doc", ptr %7, i32 0, i32 1
  call void @llvm.memcpy.p0.p0.i64(ptr align 8 %3, ptr align 8 %8, i64 32, i1 false), !tbaa.struct !11
  %9 = load ptr, ptr %2, align 8, !tbaa !71
  %10 = getelementptr inbounds nuw %"struct.duckdb_yyjson::yyjson_mut_doc", ptr %9, i32 0, i32 1
  call void @llvm.memset.p0.i64(ptr align 8 %10, i8 0, i64 32, i1 false)
  %11 = load ptr, ptr %2, align 8, !tbaa !71
  %12 = getelementptr inbounds nuw %"struct.duckdb_yyjson::yyjson_mut_doc", ptr %11, i32 0, i32 2
  call void @_ZN13duckdb_yyjsonL30unsafe_yyjson_str_pool_releaseEPNS_15yyjson_str_poolEPNS_10yyjson_alcE(ptr noundef %12, ptr noundef %3)
  %13 = load ptr, ptr %2, align 8, !tbaa !71
  %14 = getelementptr inbounds nuw %"struct.duckdb_yyjson::yyjson_mut_doc", ptr %13, i32 0, i32 3
  call void @_ZN13duckdb_yyjsonL30unsafe_yyjson_val_pool_releaseEPNS_15yyjson_val_poolEPNS_10yyjson_alcE(ptr noundef %14, ptr noundef %3)
  %15 = getelementptr inbounds nuw %"struct.duckdb_yyjson::yyjson_alc", ptr %3, i32 0, i32 2
  %16 = load ptr, ptr %15, align 8, !tbaa !25
  %17 = getelementptr inbounds nuw %"struct.duckdb_yyjson::yyjson_alc", ptr %3, i32 0, i32 3
  %18 = load ptr, ptr %17, align 8, !tbaa !26
  %19 = load ptr, ptr %2, align 8, !tbaa !71
  call void %16(ptr noundef %18, ptr noundef %19)
  call void @llvm.lifetime.end.p0(i64 32, ptr %3) #15
  br label %20

20:                                               ; preds = %6, %1
  ret void
}

; Function Attrs: mustprogress uwtable
define noundef ptr @_ZN13duckdb_yyjson23yyjson_mut_val_mut_copyEPNS_14yyjson_mut_docEPNS_14yyjson_mut_valE(ptr noundef %0, ptr noundef %1) #1 {
  %3 = alloca ptr, align 8
  %4 = alloca ptr, align 8
  %5 = alloca ptr, align 8
  store ptr %0, ptr %4, align 8, !tbaa !71
  store ptr %1, ptr %5, align 8, !tbaa !85
  %6 = load ptr, ptr %4, align 8, !tbaa !71
  %7 = icmp ne ptr %6, null
  br i1 %7, label %8, label %15

8:                                                ; preds = %2
  %9 = load ptr, ptr %5, align 8, !tbaa !85
  %10 = icmp ne ptr %9, null
  br i1 %10, label %11, label %15

11:                                               ; preds = %8
  %12 = load ptr, ptr %4, align 8, !tbaa !71
  %13 = load ptr, ptr %5, align 8, !tbaa !85
  %14 = call noundef ptr @_ZN13duckdb_yyjsonL30unsafe_yyjson_mut_val_mut_copyEPNS_14yyjson_mut_docEPNS_14yyjson_mut_valE(ptr noundef %12, ptr noundef %13)
  store ptr %14, ptr %3, align 8
  br label %16

15:                                               ; preds = %8, %2
  store ptr null, ptr %3, align 8
  br label %16

16:                                               ; preds = %15, %11
  %17 = load ptr, ptr %3, align 8
  ret ptr %17
}

; Function Attrs: mustprogress uwtable
define noundef ptr @_ZN13duckdb_yyjson18yyjson_mut_doc_newEPKNS_10yyjson_alcE(ptr noundef %0) #1 {
  %2 = alloca ptr, align 8
  %3 = alloca ptr, align 8
  %4 = alloca ptr, align 8
  %5 = alloca i32, align 4
  store ptr %0, ptr %3, align 8, !tbaa !3
  call void @llvm.lifetime.start.p0(i64 8, ptr %4) #15
  %6 = load ptr, ptr %3, align 8, !tbaa !3
  %7 = icmp ne ptr %6, null
  br i1 %7, label %9, label %8

8:                                                ; preds = %1
  store ptr @_ZN13duckdb_yyjsonL18YYJSON_DEFAULT_ALCE, ptr %3, align 8, !tbaa !3
  br label %9

9:                                                ; preds = %8, %1
  %10 = load ptr, ptr %3, align 8, !tbaa !3
  %11 = getelementptr inbounds nuw %"struct.duckdb_yyjson::yyjson_alc", ptr %10, i32 0, i32 0
  %12 = load ptr, ptr %11, align 8, !tbaa !22
  %13 = load ptr, ptr %3, align 8, !tbaa !3
  %14 = getelementptr inbounds nuw %"struct.duckdb_yyjson::yyjson_alc", ptr %13, i32 0, i32 3
  %15 = load ptr, ptr %14, align 8, !tbaa !26
  %16 = call noundef ptr %12(ptr noundef %15, i64 noundef 120)
  store ptr %16, ptr %4, align 8, !tbaa !71
  %17 = load ptr, ptr %4, align 8, !tbaa !71
  %18 = icmp ne ptr %17, null
  br i1 %18, label %20, label %19

19:                                               ; preds = %9
  store ptr null, ptr %2, align 8
  store i32 1, ptr %5, align 4
  br label %38

20:                                               ; preds = %9
  %21 = load ptr, ptr %4, align 8, !tbaa !71
  call void @llvm.memset.p0.i64(ptr align 8 %21, i8 0, i64 120, i1 false)
  %22 = load ptr, ptr %3, align 8, !tbaa !3
  %23 = load ptr, ptr %4, align 8, !tbaa !71
  %24 = getelementptr inbounds nuw %"struct.duckdb_yyjson::yyjson_mut_doc", ptr %23, i32 0, i32 1
  call void @llvm.memcpy.p0.p0.i64(ptr align 8 %24, ptr align 8 %22, i64 32, i1 false), !tbaa.struct !11
  %25 = load ptr, ptr %4, align 8, !tbaa !71
  %26 = getelementptr inbounds nuw %"struct.duckdb_yyjson::yyjson_mut_doc", ptr %25, i32 0, i32 2
  %27 = getelementptr inbounds nuw %"struct.duckdb_yyjson::yyjson_str_pool", ptr %26, i32 0, i32 2
  store i64 256, ptr %27, align 8, !tbaa !73
  %28 = load ptr, ptr %4, align 8, !tbaa !71
  %29 = getelementptr inbounds nuw %"struct.duckdb_yyjson::yyjson_mut_doc", ptr %28, i32 0, i32 2
  %30 = getelementptr inbounds nuw %"struct.duckdb_yyjson::yyjson_str_pool", ptr %29, i32 0, i32 3
  store i64 268435456, ptr %30, align 8, !tbaa !78
  %31 = load ptr, ptr %4, align 8, !tbaa !71
  %32 = getelementptr inbounds nuw %"struct.duckdb_yyjson::yyjson_mut_doc", ptr %31, i32 0, i32 3
  %33 = getelementptr inbounds nuw %"struct.duckdb_yyjson::yyjson_val_pool", ptr %32, i32 0, i32 2
  store i64 384, ptr %33, align 8, !tbaa !75
  %34 = load ptr, ptr %4, align 8, !tbaa !71
  %35 = getelementptr inbounds nuw %"struct.duckdb_yyjson::yyjson_mut_doc", ptr %34, i32 0, i32 3
  %36 = getelementptr inbounds nuw %"struct.duckdb_yyjson::yyjson_val_pool", ptr %35, i32 0, i32 3
  store i64 402653184, ptr %36, align 8, !tbaa !79
  %37 = load ptr, ptr %4, align 8, !tbaa !71
  store ptr %37, ptr %2, align 8
  store i32 1, ptr %5, align 4
  br label %38

38:                                               ; preds = %20, %19
  call void @llvm.lifetime.end.p0(i64 8, ptr %4) #15
  %39 = load ptr, ptr %2, align 8
  ret ptr %39
}

; Function Attrs: mustprogress uwtable
define noundef ptr @_ZN13duckdb_yyjson23yyjson_mut_doc_mut_copyEPNS_14yyjson_mut_docEPKNS_10yyjson_alcE(ptr noundef %0, ptr noundef %1) #1 {
  %3 = alloca ptr, align 8
  %4 = alloca ptr, align 8
  %5 = alloca ptr, align 8
  %6 = alloca ptr, align 8
  %7 = alloca ptr, align 8
  %8 = alloca i32, align 4
  store ptr %0, ptr %4, align 8, !tbaa !71
  store ptr %1, ptr %5, align 8, !tbaa !3
  call void @llvm.lifetime.start.p0(i64 8, ptr %6) #15
  call void @llvm.lifetime.start.p0(i64 8, ptr %7) #15
  %9 = load ptr, ptr %4, align 8, !tbaa !71
  %10 = icmp ne ptr %9, null
  br i1 %10, label %12, label %11

11:                                               ; preds = %2
  store ptr null, ptr %3, align 8
  store i32 1, ptr %8, align 4
  br label %40

12:                                               ; preds = %2
  %13 = load ptr, ptr %4, align 8, !tbaa !71
  %14 = getelementptr inbounds nuw %"struct.duckdb_yyjson::yyjson_mut_doc", ptr %13, i32 0, i32 0
  %15 = load ptr, ptr %14, align 8, !tbaa !97
  %16 = icmp ne ptr %15, null
  br i1 %16, label %20, label %17

17:                                               ; preds = %12
  %18 = load ptr, ptr %5, align 8, !tbaa !3
  %19 = call noundef ptr @_ZN13duckdb_yyjson18yyjson_mut_doc_newEPKNS_10yyjson_alcE(ptr noundef %18)
  store ptr %19, ptr %3, align 8
  store i32 1, ptr %8, align 4
  br label %40

20:                                               ; preds = %12
  %21 = load ptr, ptr %5, align 8, !tbaa !3
  %22 = call noundef ptr @_ZN13duckdb_yyjson18yyjson_mut_doc_newEPKNS_10yyjson_alcE(ptr noundef %21)
  store ptr %22, ptr %6, align 8, !tbaa !71
  %23 = load ptr, ptr %6, align 8, !tbaa !71
  %24 = icmp ne ptr %23, null
  br i1 %24, label %26, label %25

25:                                               ; preds = %20
  store ptr null, ptr %3, align 8
  store i32 1, ptr %8, align 4
  br label %40

26:                                               ; preds = %20
  %27 = load ptr, ptr %6, align 8, !tbaa !71
  %28 = load ptr, ptr %4, align 8, !tbaa !71
  %29 = getelementptr inbounds nuw %"struct.duckdb_yyjson::yyjson_mut_doc", ptr %28, i32 0, i32 0
  %30 = load ptr, ptr %29, align 8, !tbaa !97
  %31 = call noundef ptr @_ZN13duckdb_yyjson23yyjson_mut_val_mut_copyEPNS_14yyjson_mut_docEPNS_14yyjson_mut_valE(ptr noundef %27, ptr noundef %30)
  store ptr %31, ptr %7, align 8, !tbaa !85
  %32 = load ptr, ptr %7, align 8, !tbaa !85
  %33 = icmp ne ptr %32, null
  br i1 %33, label %36, label %34

34:                                               ; preds = %26
  %35 = load ptr, ptr %6, align 8, !tbaa !71
  call void @_ZN13duckdb_yyjson19yyjson_mut_doc_freeEPNS_14yyjson_mut_docE(ptr noundef %35)
  store ptr null, ptr %3, align 8
  store i32 1, ptr %8, align 4
  br label %40

36:                                               ; preds = %26
  %37 = load ptr, ptr %6, align 8, !tbaa !71
  %38 = load ptr, ptr %7, align 8, !tbaa !85
  call void @_ZN13duckdb_yyjsonL23yyjson_mut_doc_set_rootEPNS_14yyjson_mut_docEPNS_14yyjson_mut_valE(ptr noundef %37, ptr noundef %38)
  %39 = load ptr, ptr %6, align 8, !tbaa !71
  store ptr %39, ptr %3, align 8
  store i32 1, ptr %8, align 4
  br label %40

40:                                               ; preds = %36, %34, %25, %17, %11
  call void @llvm.lifetime.end.p0(i64 8, ptr %7) #15
  call void @llvm.lifetime.end.p0(i64 8, ptr %6) #15
  %41 = load ptr, ptr %3, align 8
  ret ptr %41
}