; Function Attrs: mustprogress uwtable
define noundef ptr @_ZN13duckdb_yyjson23yyjson_mut_doc_mut_copyEPNS_14yyjson_mut_docEPKNS_10yyjson_alcE(ptr noundef readonly captures(address_is_null) %0, ptr noundef readonly captures(address_is_null) %1) local_unnamed_addr #10 {
  %.not = icmp eq ptr %0, null
  br i1 %.not, label %_ZN13duckdb_yyjson18yyjson_mut_doc_newEPKNS_10yyjson_alcE.exit, label %3

3:                                                ; preds = %2
  %4 = load ptr, ptr %0, align 8, !tbaa !72
  %.not16 = icmp eq ptr %4, null
  %.not.i = icmp eq ptr %1, null
  %spec.store.select.i = select i1 %.not.i, ptr @_ZN13duckdb_yyjsonL18YYJSON_DEFAULT_ALCE, ptr %1
  %5 = load ptr, ptr %spec.store.select.i, align 8, !tbaa !17
  %6 = getelementptr inbounds nuw i8, ptr %spec.store.select.i, i64 24
  %7 = load ptr, ptr %6, align 8, !tbaa !21
  %8 = tail call noundef ptr %5(ptr noundef %7, i64 noundef 120)
  %.not14.i = icmp eq ptr %8, null
  br i1 %.not16, label %9, label %16

9:                                                ; preds = %3
  br i1 %.not14.i, label %_ZN13duckdb_yyjson18yyjson_mut_doc_newEPKNS_10yyjson_alcE.exit, label %10

10:                                               ; preds = %9
  tail call void @llvm.memset.p0.i64(ptr noundef nonnull align 8 dereferenceable(120) %8, i8 0, i64 120, i1 false)
  %11 = getelementptr inbounds nuw i8, ptr %8, i64 8
  tail call void @llvm.memcpy.p0.p0.i64(ptr noundef nonnull align 8 dereferenceable(32) %11, ptr noundef nonnull align 8 dereferenceable(32) %spec.store.select.i, i64 32, i1 false), !tbaa.struct !4
  %12 = getelementptr inbounds nuw i8, ptr %8, i64 56
  store i64 256, ptr %12, align 8, !tbaa !62
  %13 = getelementptr inbounds nuw i8, ptr %8, i64 64
  store i64 268435456, ptr %13, align 8, !tbaa !67
  %14 = getelementptr inbounds nuw i8, ptr %8, i64 96
  store i64 384, ptr %14, align 8, !tbaa !64
  %15 = getelementptr inbounds nuw i8, ptr %8, i64 104
  store i64 402653184, ptr %15, align 8, !tbaa !68
  br label %_ZN13duckdb_yyjson18yyjson_mut_doc_newEPKNS_10yyjson_alcE.exit

16:                                               ; preds = %3
  br i1 %.not14.i, label %_ZN13duckdb_yyjson18yyjson_mut_doc_newEPKNS_10yyjson_alcE.exit, label %17

17:                                               ; preds = %16
  tail call void @llvm.memset.p0.i64(ptr noundef nonnull align 8 dereferenceable(120) %8, i8 0, i64 120, i1 false)
  %18 = getelementptr inbounds nuw i8, ptr %8, i64 8
  tail call void @llvm.memcpy.p0.p0.i64(ptr noundef nonnull align 8 dereferenceable(32) %18, ptr noundef nonnull align 8 dereferenceable(32) %spec.store.select.i, i64 32, i1 false), !tbaa.struct !4
  %19 = getelementptr inbounds nuw i8, ptr %8, i64 56
  store i64 256, ptr %19, align 8, !tbaa !62
  %20 = getelementptr inbounds nuw i8, ptr %8, i64 64
  store i64 268435456, ptr %20, align 8, !tbaa !67
  %21 = getelementptr inbounds nuw i8, ptr %8, i64 96
  store i64 384, ptr %21, align 8, !tbaa !64
  %22 = getelementptr inbounds nuw i8, ptr %8, i64 104
  store i64 402653184, ptr %22, align 8, !tbaa !68
  %23 = load ptr, ptr %0, align 8, !tbaa !72
  %.not26 = icmp eq ptr %23, null
  br i1 %.not26, label %_ZN13duckdb_yyjson23yyjson_mut_val_mut_copyEPNS_14yyjson_mut_docEPNS_14yyjson_mut_valE.exit.thread.thread, label %_ZN13duckdb_yyjson23yyjson_mut_val_mut_copyEPNS_14yyjson_mut_docEPNS_14yyjson_mut_valE.exit

_ZN13duckdb_yyjson23yyjson_mut_val_mut_copyEPNS_14yyjson_mut_docEPNS_14yyjson_mut_valE.exit.thread.thread: ; preds = %17
  %.sroa.3.0..sroa_idx.i27 = getelementptr inbounds nuw i8, ptr %8, i64 24
  %.sroa.3.0.copyload.i28 = load ptr, ptr %.sroa.3.0..sroa_idx.i27, align 8, !tbaa !5
  %.sroa.6.0..sroa_idx.i29 = getelementptr inbounds nuw i8, ptr %8, i64 32
  %.sroa.6.0.copyload.i30 = load ptr, ptr %.sroa.6.0..sroa_idx.i29, align 8, !tbaa !5
  tail call void @llvm.memset.p0.i64(ptr noundef nonnull align 8 dereferenceable(32) %18, i8 0, i64 32, i1 false)
  br label %_ZN13duckdb_yyjsonL30unsafe_yyjson_str_pool_releaseEPNS_15yyjson_str_poolEPNS_10yyjson_alcE.exit.i

_ZN13duckdb_yyjson23yyjson_mut_val_mut_copyEPNS_14yyjson_mut_docEPNS_14yyjson_mut_valE.exit: ; preds = %17
  %24 = tail call fastcc noundef ptr @_ZN13duckdb_yyjsonL30unsafe_yyjson_mut_val_mut_copyEPNS_14yyjson_mut_docEPNS_14yyjson_mut_valE(ptr noundef nonnull %8, ptr noundef nonnull readonly %23)
  %.not18 = icmp eq ptr %24, null
  br i1 %.not18, label %_ZN13duckdb_yyjson23yyjson_mut_val_mut_copyEPNS_14yyjson_mut_docEPNS_14yyjson_mut_valE.exit.thread, label %29

_ZN13duckdb_yyjson23yyjson_mut_val_mut_copyEPNS_14yyjson_mut_docEPNS_14yyjson_mut_valE.exit.thread: ; preds = %_ZN13duckdb_yyjson23yyjson_mut_val_mut_copyEPNS_14yyjson_mut_docEPNS_14yyjson_mut_valE.exit
  %.phi.trans.insert = getelementptr inbounds nuw i8, ptr %8, i64 72
  %.pre = load ptr, ptr %.phi.trans.insert, align 8, !tbaa !44
  %.sroa.3.0..sroa_idx.i = getelementptr inbounds nuw i8, ptr %8, i64 24
  %.sroa.3.0.copyload.i = load ptr, ptr %.sroa.3.0..sroa_idx.i, align 8, !tbaa !5
  %.sroa.6.0..sroa_idx.i = getelementptr inbounds nuw i8, ptr %8, i64 32
  %.sroa.6.0.copyload.i = load ptr, ptr %.sroa.6.0..sroa_idx.i, align 8, !tbaa !5
  tail call void @llvm.memset.p0.i64(ptr noundef nonnull align 8 dereferenceable(32) %18, i8 0, i64 32, i1 false)
  %.not.i12.i = icmp eq ptr %.pre, null
  br i1 %.not.i12.i, label %_ZN13duckdb_yyjsonL30unsafe_yyjson_str_pool_releaseEPNS_15yyjson_str_poolEPNS_10yyjson_alcE.exit.i, label %.lr.ph.i

.lr.ph.i:                                         ; preds = %_ZN13duckdb_yyjson23yyjson_mut_val_mut_copyEPNS_14yyjson_mut_docEPNS_14yyjson_mut_valE.exit.thread, %.lr.ph.i
  %.0.i13.i = phi ptr [ %25, %.lr.ph.i ], [ %.pre, %_ZN13duckdb_yyjson23yyjson_mut_val_mut_copyEPNS_14yyjson_mut_docEPNS_14yyjson_mut_valE.exit.thread ]
  %25 = load ptr, ptr %.0.i13.i, align 8, !tbaa !45
  tail call void %.sroa.3.0.copyload.i(ptr noundef %.sroa.6.0.copyload.i, ptr noundef nonnull %.0.i13.i)
  %.not.i.i = icmp eq ptr %25, null
  br i1 %.not.i.i, label %_ZN13duckdb_yyjsonL30unsafe_yyjson_str_pool_releaseEPNS_15yyjson_str_poolEPNS_10yyjson_alcE.exit.i, label %.lr.ph.i, !llvm.loop !65

_ZN13duckdb_yyjsonL30unsafe_yyjson_str_pool_releaseEPNS_15yyjson_str_poolEPNS_10yyjson_alcE.exit.i: ; preds = %.lr.ph.i, %_ZN13duckdb_yyjson23yyjson_mut_val_mut_copyEPNS_14yyjson_mut_docEPNS_14yyjson_mut_valE.exit.thread.thread, %_ZN13duckdb_yyjson23yyjson_mut_val_mut_copyEPNS_14yyjson_mut_docEPNS_14yyjson_mut_valE.exit.thread
  %.sroa.6.0.copyload.i33 = phi ptr [ %.sroa.6.0.copyload.i30, %_ZN13duckdb_yyjson23yyjson_mut_val_mut_copyEPNS_14yyjson_mut_docEPNS_14yyjson_mut_valE.exit.thread.thread ], [ %.sroa.6.0.copyload.i, %_ZN13duckdb_yyjson23yyjson_mut_val_mut_copyEPNS_14yyjson_mut_docEPNS_14yyjson_mut_valE.exit.thread ], [ %.sroa.6.0.copyload.i, %.lr.ph.i ]
  %.sroa.3.0.copyload.i32 = phi ptr [ %.sroa.3.0.copyload.i28, %_ZN13duckdb_yyjson23yyjson_mut_val_mut_copyEPNS_14yyjson_mut_docEPNS_14yyjson_mut_valE.exit.thread.thread ], [ %.sroa.3.0.copyload.i, %_ZN13duckdb_yyjson23yyjson_mut_val_mut_copyEPNS_14yyjson_mut_docEPNS_14yyjson_mut_valE.exit.thread ], [ %.sroa.3.0.copyload.i, %.lr.ph.i ]
  %26 = getelementptr inbounds nuw i8, ptr %8, i64 112
  %27 = load ptr, ptr %26, align 8, !tbaa !55
  %.not.i714.i = icmp eq ptr %27, null
  br i1 %.not.i714.i, label %_ZN13duckdb_yyjson19yyjson_mut_doc_freeEPNS_14yyjson_mut_docE.exit, label %.lr.ph16.i

.lr.ph16.i:                                       ; preds = %_ZN13duckdb_yyjsonL30unsafe_yyjson_str_pool_releaseEPNS_15yyjson_str_poolEPNS_10yyjson_alcE.exit.i, %.lr.ph16.i
  %.0.i615.i = phi ptr [ %28, %.lr.ph16.i ], [ %27, %_ZN13duckdb_yyjsonL30unsafe_yyjson_str_pool_releaseEPNS_15yyjson_str_poolEPNS_10yyjson_alcE.exit.i ]
  %28 = load ptr, ptr %.0.i615.i, align 8, !tbaa !56
  tail call void %.sroa.3.0.copyload.i32(ptr noundef %.sroa.6.0.copyload.i33, ptr noundef nonnull %.0.i615.i)
  %.not.i7.i = icmp eq ptr %28, null
  br i1 %.not.i7.i, label %_ZN13duckdb_yyjson19yyjson_mut_doc_freeEPNS_14yyjson_mut_docE.exit, label %.lr.ph16.i, !llvm.loop !66

_ZN13duckdb_yyjson19yyjson_mut_doc_freeEPNS_14yyjson_mut_docE.exit: ; preds = %.lr.ph16.i, %_ZN13duckdb_yyjsonL30unsafe_yyjson_str_pool_releaseEPNS_15yyjson_str_poolEPNS_10yyjson_alcE.exit.i
  tail call void %.sroa.3.0.copyload.i32(ptr noundef %.sroa.6.0.copyload.i33, ptr noundef nonnull %8)
  br label %_ZN13duckdb_yyjson18yyjson_mut_doc_newEPKNS_10yyjson_alcE.exit

29:                                               ; preds = %_ZN13duckdb_yyjson23yyjson_mut_val_mut_copyEPNS_14yyjson_mut_docEPNS_14yyjson_mut_valE.exit
  store ptr %24, ptr %8, align 8, !tbaa !72
  br label %_ZN13duckdb_yyjson18yyjson_mut_doc_newEPKNS_10yyjson_alcE.exit

_ZN13duckdb_yyjson18yyjson_mut_doc_newEPKNS_10yyjson_alcE.exit: ; preds = %16, %10, %9, %2, %29, %_ZN13duckdb_yyjson19yyjson_mut_doc_freeEPNS_14yyjson_mut_docE.exit
  %.0 = phi ptr [ %8, %29 ], [ null, %_ZN13duckdb_yyjson19yyjson_mut_doc_freeEPNS_14yyjson_mut_docE.exit ], [ null, %2 ], [ null, %9 ], [ %8, %10 ], [ null, %16 ]
  ret ptr %.0
}